(i__main__
TrafficList
p1
(dp2
S'maxDegree'
p3
I8
sS'graphID'
p4
I86
sS'networkBandwidths'
p5
(lp6
sS'trafficElements'
p7
(lp8
(i__main__
TrafficElement
p9
(dp10
S'nodeId'
p11
S'0'
sS'targetsList'
p12
(lp13
(i__main__
TrafficTarget
p14
(dp15
S'dataSourcesList'
p16
(lp17
S'SOURCE'
p18
asS'targetId'
p19
S'1'
sg11
S'0'
sS'triggerPacketsList'
p20
(lp21
I5
asS'outputPackets'
p22
I2
sbasba(i__main__
TrafficElement
p23
(dp24
g11
S'1'
sg12
(lp25
(i__main__
TrafficTarget
p26
(dp27
g16
(lp28
S'0'
asg19
S'2'
sg11
S'1'
sg20
(lp29
I4
asg22
I3
sbasba(i__main__
TrafficElement
p30
(dp31
g11
S'2'
sg12
(lp32
(i__main__
TrafficTarget
p33
(dp34
g16
(lp35
S'1'
asg19
S'3'
sg11
S'2'
sg20
(lp36
I2
asg22
I4
sbasba(i__main__
TrafficElement
p37
(dp38
g11
S'3'
sg12
(lp39
(i__main__
TrafficTarget
p40
(dp41
g16
(lp42
S'2'
asg19
S'4'
sg11
S'3'
sg20
(lp43
I2
asg22
I3
sba(i__main__
TrafficTarget
p44
(dp45
g16
(lp46
S'2'
asg19
S'5'
sg11
S'3'
sg20
(lp47
I2
asg22
I2
sbasba(i__main__
TrafficElement
p48
(dp49
g11
S'4'
sg12
(lp50
(i__main__
TrafficTarget
p51
(dp52
g16
(lp53
S'3'
asg19
S'6'
sg11
S'4'
sg20
(lp54
I2
asg22
I1
sbasba(i__main__
TrafficElement
p55
(dp56
g11
S'5'
sg12
(lp57
(i__main__
TrafficTarget
p58
(dp59
g16
(lp60
S'3'
asg19
S'6'
sg11
S'5'
sg20
(lp61
I5
asg22
I5
sbasba(i__main__
TrafficElement
p62
(dp63
g11
S'6'
sg12
(lp64
(i__main__
TrafficTarget
p65
(dp66
g16
(lp67
S'5'
asg19
S'7'
sg11
S'6'
sg20
(lp68
I1
asg22
I2
sba(i__main__
TrafficTarget
p69
(dp70
g16
(lp71
S'4'
asg19
S'8'
sg11
S'6'
sg20
(lp72
I3
asg22
I5
sbasba(i__main__
TrafficElement
p73
(dp74
g11
S'7'
sg12
(lp75
(i__main__
TrafficTarget
p76
(dp77
g16
(lp78
S'6'
asg19
S'SINK'
p79
sg11
S'7'
sg20
(lp80
I1
asg22
I5
sbasba(i__main__
TrafficElement
p81
(dp82
g11
S'8'
sg12
(lp83
(i__main__
TrafficTarget
p84
(dp85
g16
(lp86
S'6'
asg19
g79
sg11
S'8'
sg20
(lp87
I2
asg22
I1
sbasbasb.