(i__main__
TrafficList
p1
(dp2
S'maxDegree'
p3
I8
sS'graphID'
p4
I11
sS'networkBandwidths'
p5
(lp6
sS'trafficElements'
p7
(lp8
(i__main__
TrafficElement
p9
(dp10
S'nodeId'
p11
S'0'
sS'targetsList'
p12
(lp13
(i__main__
TrafficTarget
p14
(dp15
S'dataSourcesList'
p16
(lp17
S'SOURCE'
p18
asS'targetId'
p19
S'1'
sg11
S'0'
sS'triggerPacketsList'
p20
(lp21
I4
asS'outputPackets'
p22
I4
sba(i__main__
TrafficTarget
p23
(dp24
g16
(lp25
g18
asg19
S'2'
sg11
S'0'
sg20
(lp26
I2
asg22
I4
sbasba(i__main__
TrafficElement
p27
(dp28
g11
S'1'
sg12
(lp29
(i__main__
TrafficTarget
p30
(dp31
g16
(lp32
S'0'
asg19
S'3'
sg11
S'1'
sg20
(lp33
I1
asg22
I8
sbasba(i__main__
TrafficElement
p34
(dp35
g11
S'2'
sg12
(lp36
(i__main__
TrafficTarget
p37
(dp38
g16
(lp39
S'0'
asg19
S'3'
sg11
S'2'
sg20
(lp40
I1
asg22
I1
sbasba(i__main__
TrafficElement
p41
(dp42
g11
S'3'
sg12
(lp43
(i__main__
TrafficTarget
p44
(dp45
g16
(lp46
S'2'
asg19
S'4'
sg11
S'3'
sg20
(lp47
I1
asg22
I2
sba(i__main__
TrafficTarget
p48
(dp49
g16
(lp50
S'1'
asg19
S'5'
sg11
S'3'
sg20
(lp51
I1
asg22
I2
sba(i__main__
TrafficTarget
p52
(dp53
g16
(lp54
S'2'
asg19
S'6'
sg11
S'3'
sg20
(lp55
I3
asg22
I1
sbasba(i__main__
TrafficElement
p56
(dp57
g11
S'4'
sg12
(lp58
(i__main__
TrafficTarget
p59
(dp60
g16
(lp61
S'3'
asg19
S'7'
sg11
S'4'
sg20
(lp62
I3
asg22
I5
sbasba(i__main__
TrafficElement
p63
(dp64
g11
S'5'
sg12
(lp65
(i__main__
TrafficTarget
p66
(dp67
g16
(lp68
S'3'
asg19
S'7'
sg11
S'5'
sg20
(lp69
I3
asg22
I1
sbasba(i__main__
TrafficElement
p70
(dp71
g11
S'6'
sg12
(lp72
(i__main__
TrafficTarget
p73
(dp74
g16
(lp75
S'3'
asg19
S'7'
sg11
S'6'
sg20
(lp76
I1
asg22
I2
sbasba(i__main__
TrafficElement
p77
(dp78
g11
S'7'
sg12
(lp79
(i__main__
TrafficTarget
p80
(dp81
g16
(lp82
S'6'
aS'4'
aS'5'
asg19
S'8'
sg11
S'7'
sg20
(lp83
I5
aI2
aI5
asg22
I2
sbasba(i__main__
TrafficElement
p84
(dp85
g11
S'8'
sg12
(lp86
(i__main__
TrafficTarget
p87
(dp88
g16
(lp89
S'7'
asg19
S'SINK'
p90
sg11
S'8'
sg20
(lp91
I2
asg22
I1
sbasbasb.