(i__main__
TrafficList
p1
(dp2
S'maxDegree'
p3
I8
sS'graphID'
p4
I92
sS'networkBandwidths'
p5
(lp6
sS'trafficElements'
p7
(lp8
(i__main__
TrafficElement
p9
(dp10
S'nodeId'
p11
S'0'
sS'targetsList'
p12
(lp13
(i__main__
TrafficTarget
p14
(dp15
S'dataSourcesList'
p16
(lp17
S'SOURCE'
p18
asS'targetId'
p19
S'1'
sg11
S'0'
sS'triggerPacketsList'
p20
(lp21
I1
asS'outputPackets'
p22
I1
sbasba(i__main__
TrafficElement
p23
(dp24
g11
S'1'
sg12
(lp25
(i__main__
TrafficTarget
p26
(dp27
g16
(lp28
S'0'
asg19
S'2'
sg11
S'1'
sg20
(lp29
I2
asg22
I2
sba(i__main__
TrafficTarget
p30
(dp31
g16
(lp32
S'0'
asg19
S'3'
sg11
S'1'
sg20
(lp33
I3
asg22
I2
sbasba(i__main__
TrafficElement
p34
(dp35
g11
S'2'
sg12
(lp36
(i__main__
TrafficTarget
p37
(dp38
g16
(lp39
S'1'
asg19
S'4'
sg11
S'2'
sg20
(lp40
I2
asg22
I2
sbasba(i__main__
TrafficElement
p41
(dp42
g11
S'3'
sg12
(lp43
(i__main__
TrafficTarget
p44
(dp45
g16
(lp46
S'1'
asg19
S'4'
sg11
S'3'
sg20
(lp47
I3
asg22
I4
sbasba(i__main__
TrafficElement
p48
(dp49
g11
S'4'
sg12
(lp50
(i__main__
TrafficTarget
p51
(dp52
g16
(lp53
S'3'
asg19
S'5'
sg11
S'4'
sg20
(lp54
I1
asg22
I3
sba(i__main__
TrafficTarget
p55
(dp56
g16
(lp57
S'3'
asg19
S'6'
sg11
S'4'
sg20
(lp58
I5
asg22
I3
sba(i__main__
TrafficTarget
p59
(dp60
g16
(lp61
S'2'
aS'3'
asg19
S'7'
sg11
S'4'
sg20
(lp62
I4
aI4
asg22
I3
sbasba(i__main__
TrafficElement
p63
(dp64
g11
S'5'
sg12
(lp65
(i__main__
TrafficTarget
p66
(dp67
g16
(lp68
S'4'
asg19
S'8'
sg11
S'5'
sg20
(lp69
I2
asg22
I1
sbasba(i__main__
TrafficElement
p70
(dp71
g11
S'6'
sg12
(lp72
(i__main__
TrafficTarget
p73
(dp74
g16
(lp75
S'4'
asg19
S'8'
sg11
S'6'
sg20
(lp76
I3
asg22
I3
sbasba(i__main__
TrafficElement
p77
(dp78
g11
S'7'
sg12
(lp79
(i__main__
TrafficTarget
p80
(dp81
g16
(lp82
S'4'
asg19
S'8'
sg11
S'7'
sg20
(lp83
I1
asg22
I3
sbasba(i__main__
TrafficElement
p84
(dp85
g11
S'8'
sg12
(lp86
(i__main__
TrafficTarget
p87
(dp88
g16
(lp89
S'6'
aS'5'
aS'7'
asg19
S'SINK'
p90
sg11
S'8'
sg20
(lp91
I2
aI5
aI3
asg22
I2
sbasbasb.