(i__main__
TrafficList
p1
(dp2
S'maxDegree'
p3
I8
sS'graphID'
p4
I7
sS'networkBandwidths'
p5
(lp6
sS'trafficElements'
p7
(lp8
(i__main__
TrafficElement
p9
(dp10
S'nodeId'
p11
S'0'
sS'targetsList'
p12
(lp13
(i__main__
TrafficTarget
p14
(dp15
S'dataSourcesList'
p16
(lp17
S'SOURCE'
p18
asS'targetId'
p19
S'1'
sg11
S'0'
sS'triggerPacketsList'
p20
(lp21
I4
asS'outputPackets'
p22
I4
sba(i__main__
TrafficTarget
p23
(dp24
g16
(lp25
g18
asg19
S'2'
sg11
S'0'
sg20
(lp26
I1
asg22
I2
sbasba(i__main__
TrafficElement
p27
(dp28
g11
S'1'
sg12
(lp29
(i__main__
TrafficTarget
p30
(dp31
g16
(lp32
S'0'
asg19
S'3'
sg11
S'1'
sg20
(lp33
I2
asg22
I5
sbasba(i__main__
TrafficElement
p34
(dp35
g11
S'2'
sg12
(lp36
(i__main__
TrafficTarget
p37
(dp38
g16
(lp39
S'0'
asg19
S'3'
sg11
S'2'
sg20
(lp40
I1
asg22
I1
sbasba(i__main__
TrafficElement
p41
(dp42
g11
S'3'
sg12
(lp43
(i__main__
TrafficTarget
p44
(dp45
g16
(lp46
S'1'
asg19
S'4'
sg11
S'3'
sg20
(lp47
I5
asg22
I1
sba(i__main__
TrafficTarget
p48
(dp49
g16
(lp50
S'2'
asg19
S'5'
sg11
S'3'
sg20
(lp51
I3
asg22
I1
sbasba(i__main__
TrafficElement
p52
(dp53
g11
S'4'
sg12
(lp54
(i__main__
TrafficTarget
p55
(dp56
g16
(lp57
S'3'
asg19
S'6'
sg11
S'4'
sg20
(lp58
I5
asg22
I3
sbasba(i__main__
TrafficElement
p59
(dp60
g11
S'5'
sg12
(lp61
(i__main__
TrafficTarget
p62
(dp63
g16
(lp64
S'3'
asg19
S'6'
sg11
S'5'
sg20
(lp65
I4
asg22
I1
sbasba(i__main__
TrafficElement
p66
(dp67
g11
S'6'
sg12
(lp68
(i__main__
TrafficTarget
p69
(dp70
g16
(lp71
S'4'
asg19
S'7'
sg11
S'6'
sg20
(lp72
I2
asg22
I2
sba(i__main__
TrafficTarget
p73
(dp74
g16
(lp75
S'4'
aS'5'
asg19
S'8'
sg11
S'6'
sg20
(lp76
I2
aI3
asg22
I1
sbasba(i__main__
TrafficElement
p77
(dp78
g11
S'7'
sg12
(lp79
(i__main__
TrafficTarget
p80
(dp81
g16
(lp82
S'6'
asg19
S'SINK'
p83
sg11
S'7'
sg20
(lp84
I4
asg22
I1
sbasba(i__main__
TrafficElement
p85
(dp86
g11
S'8'
sg12
(lp87
(i__main__
TrafficTarget
p88
(dp89
g16
(lp90
S'6'
asg19
g83
sg11
S'8'
sg20
(lp91
I2
asg22
I5
sbasbasb.