(i__main__
TrafficList
p1
(dp2
S'maxDegree'
p3
I8
sS'graphID'
p4
I90
sS'networkBandwidths'
p5
(lp6
sS'trafficElements'
p7
(lp8
(i__main__
TrafficElement
p9
(dp10
S'nodeId'
p11
S'0'
sS'targetsList'
p12
(lp13
(i__main__
TrafficTarget
p14
(dp15
S'dataSourcesList'
p16
(lp17
S'SOURCE'
p18
asS'targetId'
p19
S'2'
sg11
S'0'
sS'triggerPacketsList'
p20
(lp21
I1
asS'outputPackets'
p22
I1
sbasba(i__main__
TrafficElement
p23
(dp24
g11
S'1'
sg12
(lp25
(i__main__
TrafficTarget
p26
(dp27
g16
(lp28
g18
asg19
S'2'
sg11
S'1'
sg20
(lp29
I2
asg22
I3
sbasba(i__main__
TrafficElement
p30
(dp31
g11
S'2'
sg12
(lp32
(i__main__
TrafficTarget
p33
(dp34
g16
(lp35
S'0'
asg19
S'3'
sg11
S'2'
sg20
(lp36
I2
asg22
I5
sba(i__main__
TrafficTarget
p37
(dp38
g16
(lp39
S'0'
aS'1'
asg19
S'4'
sg11
S'2'
sg20
(lp40
I2
aI1
asg22
I1
sbasba(i__main__
TrafficElement
p41
(dp42
g11
S'3'
sg12
(lp43
(i__main__
TrafficTarget
p44
(dp45
g16
(lp46
S'2'
asg19
S'5'
sg11
S'3'
sg20
(lp47
I1
asg22
I3
sba(i__main__
TrafficTarget
p48
(dp49
g16
(lp50
S'2'
asg19
S'6'
sg11
S'3'
sg20
(lp51
I1
asg22
I1
sbasba(i__main__
TrafficElement
p52
(dp53
g11
S'4'
sg12
(lp54
(i__main__
TrafficTarget
p55
(dp56
g16
(lp57
S'2'
asg19
S'5'
sg11
S'4'
sg20
(lp58
I4
asg22
I2
sbasba(i__main__
TrafficElement
p59
(dp60
g11
S'5'
sg12
(lp61
(i__main__
TrafficTarget
p62
(dp63
g16
(lp64
S'4'
aS'3'
asg19
S'7'
sg11
S'5'
sg20
(lp65
I6
aI1
asg22
I6
sbasba(i__main__
TrafficElement
p66
(dp67
g11
S'6'
sg12
(lp68
(i__main__
TrafficTarget
p69
(dp70
g16
(lp71
S'3'
asg19
S'7'
sg11
S'6'
sg20
(lp72
I4
asg22
I1
sbasba(i__main__
TrafficElement
p73
(dp74
g11
S'7'
sg12
(lp75
(i__main__
TrafficTarget
p76
(dp77
g16
(lp78
S'5'
aS'6'
asg19
S'8'
sg11
S'7'
sg20
(lp79
I3
aI1
asg22
I4
sbasba(i__main__
TrafficElement
p80
(dp81
g11
S'8'
sg12
(lp82
(i__main__
TrafficTarget
p83
(dp84
g16
(lp85
S'7'
asg19
S'SINK'
p86
sg11
S'8'
sg20
(lp87
I3
asg22
I4
sbasbasb.