(i__main__
TrafficList
p1
(dp2
S'maxDegree'
p3
I8
sS'graphID'
p4
I1
sS'networkBandwidths'
p5
(lp6
sS'trafficElements'
p7
(lp8
(i__main__
TrafficElement
p9
(dp10
S'nodeId'
p11
S'0'
sS'targetsList'
p12
(lp13
(i__main__
TrafficTarget
p14
(dp15
S'dataSourcesList'
p16
(lp17
S'SOURCE'
p18
asS'targetId'
p19
S'1'
sg11
S'0'
sS'triggerPacketsList'
p20
(lp21
I2
asS'outputPackets'
p22
I8
sba(i__main__
TrafficTarget
p23
(dp24
g16
(lp25
g18
asg19
S'2'
sg11
S'0'
sg20
(lp26
I2
asg22
I3
sba(i__main__
TrafficTarget
p27
(dp28
g16
(lp29
g18
asg19
S'6'
sg11
S'0'
sg20
(lp30
I1
asg22
I1
sba(i__main__
TrafficTarget
p31
(dp32
g16
(lp33
g18
asg19
S'4'
sg11
S'0'
sg20
(lp34
I2
asg22
I3
sbasba(i__main__
TrafficElement
p35
(dp36
g11
S'1'
sg12
(lp37
(i__main__
TrafficTarget
p38
(dp39
g16
(lp40
S'0'
asg19
S'9'
sg11
S'1'
sg20
(lp41
I2
asg22
I1
sbasba(i__main__
TrafficElement
p42
(dp43
g11
S'2'
sg12
(lp44
(i__main__
TrafficTarget
p45
(dp46
g16
(lp47
S'0'
asg19
S'3'
sg11
S'2'
sg20
(lp48
I3
asg22
I7
sba(i__main__
TrafficTarget
p49
(dp50
g16
(lp51
S'0'
asg19
S'6'
sg11
S'2'
sg20
(lp52
I3
asg22
I2
sbasba(i__main__
TrafficElement
p53
(dp54
g11
S'3'
sg12
(lp55
(i__main__
TrafficTarget
p56
(dp57
g16
(lp58
S'2'
asg19
S'9'
sg11
S'3'
sg20
(lp59
I2
asg22
I1
sba(i__main__
TrafficTarget
p60
(dp61
g16
(lp62
S'2'
asg19
S'5'
sg11
S'3'
sg20
(lp63
I4
asg22
I2
sba(i__main__
TrafficTarget
p64
(dp65
g16
(lp66
S'2'
asg19
S'6'
sg11
S'3'
sg20
(lp67
I5
asg22
I2
sba(i__main__
TrafficTarget
p68
(dp69
g16
(lp70
S'2'
asg19
S'4'
sg11
S'3'
sg20
(lp71
I1
asg22
I2
sbasba(i__main__
TrafficElement
p72
(dp73
g11
S'4'
sg12
(lp74
(i__main__
TrafficTarget
p75
(dp76
g16
(lp77
S'3'
aS'0'
asg19
S'8'
sg11
S'4'
sg20
(lp78
I5
aI3
asg22
I4
sbasba(i__main__
TrafficElement
p79
(dp80
g11
S'5'
sg12
(lp81
(i__main__
TrafficTarget
p82
(dp83
g16
(lp84
S'3'
asg19
S'11'
p85
sg11
S'5'
sg20
(lp86
I4
asg22
I3
sba(i__main__
TrafficTarget
p87
(dp88
g16
(lp89
S'3'
asg19
S'7'
sg11
S'5'
sg20
(lp90
I1
asg22
I10
sba(i__main__
TrafficTarget
p91
(dp92
g16
(lp93
S'3'
asg19
S'6'
sg11
S'5'
sg20
(lp94
I1
asg22
I2
sba(i__main__
TrafficTarget
p95
(dp96
g16
(lp97
S'3'
asg19
S'10'
p98
sg11
S'5'
sg20
(lp99
I2
asg22
I4
sbasba(i__main__
TrafficElement
p100
(dp101
g11
S'6'
sg12
(lp102
(i__main__
TrafficTarget
p103
(dp104
g16
(lp105
S'0'
aS'2'
aS'5'
asg19
S'8'
sg11
S'6'
sg20
(lp106
I2
aI4
aI4
asg22
I3
sba(i__main__
TrafficTarget
p107
(dp108
g16
(lp109
S'3'
asg19
S'13'
p110
sg11
S'6'
sg20
(lp111
I4
asg22
I4
sbasba(i__main__
TrafficElement
p112
(dp113
g11
S'7'
sg12
(lp114
(i__main__
TrafficTarget
p115
(dp116
g16
(lp117
S'5'
asg19
S'9'
sg11
S'7'
sg20
(lp118
I4
asg22
I5
sba(i__main__
TrafficTarget
p119
(dp120
g16
(lp121
S'5'
asg19
S'15'
p122
sg11
S'7'
sg20
(lp123
I4
asg22
I3
sbasba(i__main__
TrafficElement
p124
(dp125
g11
S'8'
sg12
(lp126
(i__main__
TrafficTarget
p127
(dp128
g16
(lp129
S'4'
asg19
S'11'
p130
sg11
S'8'
sg20
(lp131
I1
asg22
I1
sba(i__main__
TrafficTarget
p132
(dp133
g16
(lp134
S'6'
asg19
S'12'
p135
sg11
S'8'
sg20
(lp136
I4
asg22
I6
sba(i__main__
TrafficTarget
p137
(dp138
g16
(lp139
S'6'
asg19
S'10'
p140
sg11
S'8'
sg20
(lp141
I1
asg22
I3
sbasba(i__main__
TrafficElement
p142
(dp143
g11
S'9'
sg12
(lp144
(i__main__
TrafficTarget
p145
(dp146
g16
(lp147
S'7'
aS'1'
asg19
S'12'
p148
sg11
S'9'
sg20
(lp149
I2
aI3
asg22
I5
sba(i__main__
TrafficTarget
p150
(dp151
g16
(lp152
S'3'
asg19
S'14'
p153
sg11
S'9'
sg20
(lp154
I3
asg22
I3
sbasba(i__main__
TrafficElement
p155
(dp156
g11
S'10'
p157
sg12
(lp158
(i__main__
TrafficTarget
p159
(dp160
g16
(lp161
S'8'
asg19
S'15'
p162
sg11
g157
sg20
(lp163
I1
asg22
I1
sba(i__main__
TrafficTarget
p164
(dp165
g16
(lp166
S'5'
aS'8'
asg19
S'16'
p167
sg11
g157
sg20
(lp168
I2
aI4
asg22
I5
sbasba(i__main__
TrafficElement
p169
(dp170
g11
S'11'
p171
sg12
(lp172
(i__main__
TrafficTarget
p173
(dp174
g16
(lp175
S'8'
aS'5'
asg19
S'19'
p176
sg11
g171
sg20
(lp177
I1
aI2
asg22
I4
sbasba(i__main__
TrafficElement
p178
(dp179
g11
S'12'
p180
sg12
(lp181
(i__main__
TrafficTarget
p182
(dp183
g16
(lp184
S'8'
asg19
S'17'
p185
sg11
g180
sg20
(lp186
I1
asg22
I3
sba(i__main__
TrafficTarget
p187
(dp188
g16
(lp189
S'9'
asg19
S'14'
p190
sg11
g180
sg20
(lp191
I1
asg22
I1
sba(i__main__
TrafficTarget
p192
(dp193
g16
(lp194
S'9'
asg19
S'13'
p195
sg11
g180
sg20
(lp196
I1
asg22
I3
sbasba(i__main__
TrafficElement
p197
(dp198
g11
S'13'
p199
sg12
(lp200
(i__main__
TrafficTarget
p201
(dp202
g16
(lp203
S'6'
asg19
S'22'
p204
sg11
g199
sg20
(lp205
I1
asg22
I2
sba(i__main__
TrafficTarget
p206
(dp207
g16
(lp208
S'6'
aS'12'
p209
asg19
S'21'
p210
sg11
g199
sg20
(lp211
I4
aI2
asg22
I1
sba(i__main__
TrafficTarget
p212
(dp213
g16
(lp214
S'6'
asg19
S'16'
p215
sg11
g199
sg20
(lp216
I3
asg22
I3
sbasba(i__main__
TrafficElement
p217
(dp218
g11
S'14'
p219
sg12
(lp220
(i__main__
TrafficTarget
p221
(dp222
g16
(lp223
S'12'
p224
asg19
S'17'
p225
sg11
g219
sg20
(lp226
I2
asg22
I4
sba(i__main__
TrafficTarget
p227
(dp228
g16
(lp229
S'9'
ag224
asg19
S'22'
p230
sg11
g219
sg20
(lp231
I4
aI1
asg22
I3
sba(i__main__
TrafficTarget
p232
(dp233
g16
(lp234
S'9'
asg19
S'21'
p235
sg11
g219
sg20
(lp236
I1
asg22
I2
sbasba(i__main__
TrafficElement
p237
(dp238
g11
S'15'
p239
sg12
(lp240
(i__main__
TrafficTarget
p241
(dp242
g16
(lp243
S'10'
p244
aS'7'
asg19
S'23'
p245
sg11
g239
sg20
(lp246
I1
aI1
asg22
I3
sbasba(i__main__
TrafficElement
p247
(dp248
g11
S'16'
p249
sg12
(lp250
(i__main__
TrafficTarget
p251
(dp252
g16
(lp253
S'10'
p254
asg19
S'21'
p255
sg11
g249
sg20
(lp256
I2
asg22
I4
sba(i__main__
TrafficTarget
p257
(dp258
g16
(lp259
g254
asg19
S'18'
p260
sg11
g249
sg20
(lp261
I5
asg22
I2
sba(i__main__
TrafficTarget
p262
(dp263
g16
(lp264
S'13'
p265
asg19
S'20'
p266
sg11
g249
sg20
(lp267
I6
asg22
I1
sba(i__main__
TrafficTarget
p268
(dp269
g16
(lp270
g265
asg19
S'23'
p271
sg11
g249
sg20
(lp272
I1
asg22
I4
sbasba(i__main__
TrafficElement
p273
(dp274
g11
S'17'
p275
sg12
(lp276
(i__main__
TrafficTarget
p277
(dp278
g16
(lp279
S'12'
p280
asg19
S'19'
p281
sg11
g275
sg20
(lp282
I2
asg22
I4
sba(i__main__
TrafficTarget
p283
(dp284
g16
(lp285
S'14'
p286
asg19
S'23'
p287
sg11
g275
sg20
(lp288
I1
asg22
I2
sbasba(i__main__
TrafficElement
p289
(dp290
g11
S'18'
p291
sg12
(lp292
(i__main__
TrafficTarget
p293
(dp294
g16
(lp295
S'16'
p296
asg19
S'23'
p297
sg11
g291
sg20
(lp298
I2
asg22
I2
sbasba(i__main__
TrafficElement
p299
(dp300
g11
S'19'
p301
sg12
(lp302
(i__main__
TrafficTarget
p303
(dp304
g16
(lp305
S'17'
p306
aS'11'
p307
asg19
S'22'
p308
sg11
g301
sg20
(lp309
I3
aI2
asg22
I2
sbasba(i__main__
TrafficElement
p310
(dp311
g11
S'20'
p312
sg12
(lp313
(i__main__
TrafficTarget
p314
(dp315
g16
(lp316
S'16'
p317
asg19
S'21'
p318
sg11
g312
sg20
(lp319
I3
asg22
I1
sba(i__main__
TrafficTarget
p320
(dp321
g16
(lp322
g317
asg19
S'24'
p323
sg11
g312
sg20
(lp324
I3
asg22
I1
sbasba(i__main__
TrafficElement
p325
(dp326
g11
S'21'
p327
sg12
(lp328
(i__main__
TrafficTarget
p329
(dp330
g16
(lp331
S'13'
p332
asg19
S'22'
p333
sg11
g327
sg20
(lp334
I4
asg22
I2
sba(i__main__
TrafficTarget
p335
(dp336
g16
(lp337
S'16'
p338
aS'14'
p339
asg19
S'24'
p340
sg11
g327
sg20
(lp341
I2
aI2
asg22
I4
sba(i__main__
TrafficTarget
p342
(dp343
g16
(lp344
S'20'
p345
asg19
S'23'
p346
sg11
g327
sg20
(lp347
I3
asg22
I2
sbasba(i__main__
TrafficElement
p348
(dp349
g11
S'22'
p350
sg12
(lp351
(i__main__
TrafficTarget
p352
(dp353
g16
(lp354
S'14'
p355
aS'13'
p356
aS'19'
p357
aS'21'
p358
asg19
S'24'
p359
sg11
g350
sg20
(lp360
I4
aI1
aI3
aI5
asg22
I4
sbasba(i__main__
TrafficElement
p361
(dp362
g11
S'23'
p363
sg12
(lp364
(i__main__
TrafficTarget
p365
(dp366
g16
(lp367
S'15'
p368
aS'16'
p369
aS'17'
p370
aS'18'
p371
aS'21'
p372
asg19
S'24'
p373
sg11
g363
sg20
(lp374
I5
aI3
aI1
aI6
aI1
asg22
I6
sbasba(i__main__
TrafficElement
p375
(dp376
g11
S'24'
p377
sg12
(lp378
(i__main__
TrafficTarget
p379
(dp380
g16
(lp381
S'21'
p382
aS'23'
p383
aS'20'
p384
aS'22'
p385
asg19
S'SINK'
p386
sg11
g377
sg20
(lp387
I3
aI1
aI3
aI2
asg22
I1
sbasbasb.