(i__main__
TrafficList
p1
(dp2
S'maxDegree'
p3
I8
sS'graphID'
p4
I1
sS'networkBandwidths'
p5
(lp6
sS'trafficElements'
p7
(lp8
(i__main__
TrafficElement
p9
(dp10
S'nodeId'
p11
S'0'
sS'targetsList'
p12
(lp13
(i__main__
TrafficTarget
p14
(dp15
S'dataSourcesList'
p16
(lp17
S'SOURCE'
p18
asS'targetId'
p19
S'1'
sg11
S'0'
sS'triggerPacketsList'
p20
(lp21
I2
asS'outputPackets'
p22
I8
sbasba(i__main__
TrafficElement
p23
(dp24
g11
S'1'
sg12
(lp25
(i__main__
TrafficTarget
p26
(dp27
g16
(lp28
S'0'
asg19
S'2'
sg11
S'1'
sg20
(lp29
I2
asg22
I3
sba(i__main__
TrafficTarget
p30
(dp31
g16
(lp32
S'0'
asg19
S'3'
sg11
S'1'
sg20
(lp33
I1
asg22
I1
sbasba(i__main__
TrafficElement
p34
(dp35
g11
S'2'
sg12
(lp36
(i__main__
TrafficTarget
p37
(dp38
g16
(lp39
S'1'
asg19
S'4'
sg11
S'2'
sg20
(lp40
I2
asg22
I3
sba(i__main__
TrafficTarget
p41
(dp42
g16
(lp43
S'1'
asg19
S'5'
sg11
S'2'
sg20
(lp44
I2
asg22
I1
sbasba(i__main__
TrafficElement
p45
(dp46
g11
S'3'
sg12
(lp47
(i__main__
TrafficTarget
p48
(dp49
g16
(lp50
S'1'
asg19
S'6'
sg11
S'3'
sg20
(lp51
I3
asg22
I7
sbasba(i__main__
TrafficElement
p52
(dp53
g11
S'4'
sg12
(lp54
(i__main__
TrafficTarget
p55
(dp56
g16
(lp57
S'2'
asg19
S'8'
sg11
S'4'
sg20
(lp58
I3
asg22
I2
sbasba(i__main__
TrafficElement
p59
(dp60
g11
S'5'
sg12
(lp61
(i__main__
TrafficTarget
p62
(dp63
g16
(lp64
S'2'
asg19
S'7'
sg11
S'5'
sg20
(lp65
I2
asg22
I1
sba(i__main__
TrafficTarget
p66
(dp67
g16
(lp68
S'2'
asg19
S'9'
sg11
S'5'
sg20
(lp69
I4
asg22
I2
sbasba(i__main__
TrafficElement
p70
(dp71
g11
S'6'
sg12
(lp72
(i__main__
TrafficTarget
p73
(dp74
g16
(lp75
S'3'
asg19
S'7'
sg11
S'6'
sg20
(lp76
I5
asg22
I2
sbasba(i__main__
TrafficElement
p77
(dp78
g11
S'7'
sg12
(lp79
(i__main__
TrafficTarget
p80
(dp81
g16
(lp82
S'5'
asg19
S'10'
p83
sg11
S'7'
sg20
(lp84
I1
asg22
I2
sba(i__main__
TrafficTarget
p85
(dp86
g16
(lp87
S'5'
aS'6'
asg19
S'11'
p88
sg11
S'7'
sg20
(lp89
I5
aI3
asg22
I1
sbasba(i__main__
TrafficElement
p90
(dp91
g11
S'8'
sg12
(lp92
(i__main__
TrafficTarget
p93
(dp94
g16
(lp95
S'4'
asg19
S'10'
p96
sg11
S'8'
sg20
(lp97
I1
asg22
I2
sbasba(i__main__
TrafficElement
p98
(dp99
g11
S'9'
sg12
(lp100
(i__main__
TrafficTarget
p101
(dp102
g16
(lp103
S'5'
asg19
S'10'
p104
sg11
S'9'
sg20
(lp105
I1
asg22
I2
sbasba(i__main__
TrafficElement
p106
(dp107
g11
S'10'
p108
sg12
(lp109
(i__main__
TrafficTarget
p110
(dp111
g16
(lp112
S'7'
aS'8'
aS'9'
asg19
S'12'
p113
sg11
g108
sg20
(lp114
I2
aI3
aI3
asg22
I4
sbasba(i__main__
TrafficElement
p115
(dp116
g11
S'11'
p117
sg12
(lp118
(i__main__
TrafficTarget
p119
(dp120
g16
(lp121
S'7'
asg19
S'12'
p122
sg11
g117
sg20
(lp123
I4
asg22
I3
sbasba(i__main__
TrafficElement
p124
(dp125
g11
S'12'
p126
sg12
(lp127
(i__main__
TrafficTarget
p128
(dp129
g16
(lp130
S'10'
p131
asg19
S'13'
p132
sg11
g126
sg20
(lp133
I4
asg22
I3
sba(i__main__
TrafficTarget
p134
(dp135
g16
(lp136
S'11'
p137
asg19
S'14'
p138
sg11
g126
sg20
(lp139
I1
asg22
I2
sba(i__main__
TrafficTarget
p140
(dp141
g16
(lp142
g131
ag137
asg19
S'15'
p143
sg11
g126
sg20
(lp144
I4
aI4
asg22
I1
sbasba(i__main__
TrafficElement
p145
(dp146
g11
S'13'
p147
sg12
(lp148
(i__main__
TrafficTarget
p149
(dp150
g16
(lp151
S'12'
p152
asg19
S'16'
p153
sg11
g147
sg20
(lp154
I4
asg22
I1
sba(i__main__
TrafficTarget
p155
(dp156
g16
(lp157
g152
asg19
S'17'
p158
sg11
g147
sg20
(lp159
I1
asg22
I3
sba(i__main__
TrafficTarget
p160
(dp161
g16
(lp162
g152
asg19
S'18'
p163
sg11
g147
sg20
(lp164
I2
asg22
I5
sbasba(i__main__
TrafficElement
p165
(dp166
g11
S'14'
p167
sg12
(lp168
(i__main__
TrafficTarget
p169
(dp170
g16
(lp171
S'12'
p172
asg19
S'19'
p173
sg11
g167
sg20
(lp174
I3
asg22
I3
sbasba(i__main__
TrafficElement
p175
(dp176
g11
S'15'
p177
sg12
(lp178
(i__main__
TrafficTarget
p179
(dp180
g16
(lp181
S'12'
p182
asg19
S'19'
p183
sg11
g177
sg20
(lp184
I1
asg22
I3
sbasba(i__main__
TrafficElement
p185
(dp186
g11
S'16'
p187
sg12
(lp188
(i__main__
TrafficTarget
p189
(dp190
g16
(lp191
S'13'
p192
asg19
S'21'
p193
sg11
g187
sg20
(lp194
I2
asg22
I5
sba(i__main__
TrafficTarget
p195
(dp196
g16
(lp197
g192
asg19
S'22'
p198
sg11
g187
sg20
(lp199
I1
asg22
I1
sba(i__main__
TrafficTarget
p200
(dp201
g16
(lp202
g192
asg19
S'23'
p203
sg11
g187
sg20
(lp204
I6
asg22
I2
sbasba(i__main__
TrafficElement
p205
(dp206
g11
S'17'
p207
sg12
(lp208
(i__main__
TrafficTarget
p209
(dp210
g16
(lp211
S'13'
p212
asg19
S'21'
p213
sg11
g207
sg20
(lp214
I1
asg22
I1
sbasba(i__main__
TrafficElement
p215
(dp216
g11
S'18'
p217
sg12
(lp218
(i__main__
TrafficTarget
p219
(dp220
g16
(lp221
S'13'
p222
asg19
S'25'
p223
sg11
g217
sg20
(lp224
I1
asg22
I3
sbasba(i__main__
TrafficElement
p225
(dp226
g11
S'19'
p227
sg12
(lp228
(i__main__
TrafficTarget
p229
(dp230
g16
(lp231
S'14'
p232
aS'15'
p233
asg19
S'20'
p234
sg11
g227
sg20
(lp235
I1
aI3
asg22
I2
sbasba(i__main__
TrafficElement
p236
(dp237
g11
S'20'
p238
sg12
(lp239
(i__main__
TrafficTarget
p240
(dp241
g16
(lp242
S'19'
p243
asg19
S'24'
p244
sg11
g238
sg20
(lp245
I4
asg22
I1
sba(i__main__
TrafficTarget
p246
(dp247
g16
(lp248
g243
asg19
S'26'
p249
sg11
g238
sg20
(lp250
I3
asg22
I3
sba(i__main__
TrafficTarget
p251
(dp252
g16
(lp253
g243
asg19
S'27'
p254
sg11
g238
sg20
(lp255
I4
asg22
I3
sba(i__main__
TrafficTarget
p256
(dp257
g16
(lp258
g243
asg19
S'28'
p259
sg11
g238
sg20
(lp260
I3
asg22
I1
sbasba(i__main__
TrafficElement
p261
(dp262
g11
S'21'
p263
sg12
(lp264
(i__main__
TrafficTarget
p265
(dp266
g16
(lp267
S'16'
p268
aS'17'
p269
asg19
S'24'
p270
sg11
g263
sg20
(lp271
I3
aI1
asg22
I1
sbasba(i__main__
TrafficElement
p272
(dp273
g11
S'22'
p274
sg12
(lp275
(i__main__
TrafficTarget
p276
(dp277
g16
(lp278
S'16'
p279
asg19
S'24'
p280
sg11
g274
sg20
(lp281
I1
asg22
I1
sbasba(i__main__
TrafficElement
p282
(dp283
g11
S'23'
p284
sg12
(lp285
(i__main__
TrafficTarget
p286
(dp287
g16
(lp288
S'16'
p289
asg19
S'29'
p290
sg11
g284
sg20
(lp291
I2
asg22
I1
sbasba(i__main__
TrafficElement
p292
(dp293
g11
S'24'
p294
sg12
(lp295
(i__main__
TrafficTarget
p296
(dp297
g16
(lp298
S'20'
p299
aS'22'
p300
aS'21'
p301
asg19
S'30'
p302
sg11
g294
sg20
(lp303
I5
aI4
aI2
asg22
I1
sbasba(i__main__
TrafficElement
p304
(dp305
g11
S'25'
p306
sg12
(lp307
(i__main__
TrafficTarget
p308
(dp309
g16
(lp310
S'18'
p311
asg19
S'32'
p312
sg11
g306
sg20
(lp313
I1
asg22
I1
sba(i__main__
TrafficTarget
p314
(dp315
g16
(lp316
g311
asg19
S'33'
p317
sg11
g306
sg20
(lp318
I1
asg22
I2
sbasba(i__main__
TrafficElement
p319
(dp320
g11
S'26'
p321
sg12
(lp322
(i__main__
TrafficTarget
p323
(dp324
g16
(lp325
S'20'
p326
asg19
S'30'
p327
sg11
g321
sg20
(lp328
I2
asg22
I4
sbasba(i__main__
TrafficElement
p329
(dp330
g11
S'27'
p331
sg12
(lp332
(i__main__
TrafficTarget
p333
(dp334
g16
(lp335
S'20'
p336
asg19
S'32'
p337
sg11
g331
sg20
(lp338
I1
asg22
I1
sba(i__main__
TrafficTarget
p339
(dp340
g16
(lp341
g336
asg19
S'34'
p342
sg11
g331
sg20
(lp343
I2
asg22
I2
sbasba(i__main__
TrafficElement
p344
(dp345
g11
S'28'
p346
sg12
(lp347
(i__main__
TrafficTarget
p348
(dp349
g16
(lp350
S'20'
p351
asg19
S'31'
p352
sg11
g346
sg20
(lp353
I3
asg22
I2
sbasba(i__main__
TrafficElement
p354
(dp355
g11
S'29'
p356
sg12
(lp357
(i__main__
TrafficTarget
p358
(dp359
g16
(lp360
S'23'
p361
asg19
S'30'
p362
sg11
g356
sg20
(lp363
I3
asg22
I1
sbasba(i__main__
TrafficElement
p364
(dp365
g11
S'30'
p366
sg12
(lp367
(i__main__
TrafficTarget
p368
(dp369
g16
(lp370
S'29'
p371
asg19
S'36'
p372
sg11
g366
sg20
(lp373
I3
asg22
I1
sba(i__main__
TrafficTarget
p374
(dp375
g16
(lp376
g371
asg19
S'37'
p377
sg11
g366
sg20
(lp378
I4
asg22
I2
sba(i__main__
TrafficTarget
p379
(dp380
g16
(lp381
S'26'
p382
asg19
S'38'
p383
sg11
g366
sg20
(lp384
I2
asg22
I3
sba(i__main__
TrafficTarget
p385
(dp386
g16
(lp387
S'24'
p388
ag382
asg19
S'39'
p389
sg11
g366
sg20
(lp390
I1
aI3
asg22
I4
sbasba(i__main__
TrafficElement
p391
(dp392
g11
S'31'
p393
sg12
(lp394
(i__main__
TrafficTarget
p395
(dp396
g16
(lp397
S'28'
p398
asg19
S'36'
p399
sg11
g393
sg20
(lp400
I3
asg22
I1
sbasba(i__main__
TrafficElement
p401
(dp402
g11
S'32'
p403
sg12
(lp404
(i__main__
TrafficTarget
p405
(dp406
g16
(lp407
S'27'
p408
aS'25'
p409
asg19
S'35'
p410
sg11
g403
sg20
(lp411
I2
aI1
asg22
I2
sbasba(i__main__
TrafficElement
p412
(dp413
g11
S'33'
p414
sg12
(lp415
(i__main__
TrafficTarget
p416
(dp417
g16
(lp418
S'25'
p419
asg19
S'43'
p420
sg11
g414
sg20
(lp421
I5
asg22
I1
sbasba(i__main__
TrafficElement
p422
(dp423
g11
S'34'
p424
sg12
(lp425
(i__main__
TrafficTarget
p426
(dp427
g16
(lp428
S'27'
p429
asg19
S'36'
p430
sg11
g424
sg20
(lp431
I3
asg22
I3
sbasba(i__main__
TrafficElement
p432
(dp433
g11
S'35'
p434
sg12
(lp435
(i__main__
TrafficTarget
p436
(dp437
g16
(lp438
S'32'
p439
asg19
S'40'
p440
sg11
g434
sg20
(lp441
I6
asg22
I1
sba(i__main__
TrafficTarget
p442
(dp443
g16
(lp444
g439
asg19
S'42'
p445
sg11
g434
sg20
(lp446
I1
asg22
I5
sba(i__main__
TrafficTarget
p447
(dp448
g16
(lp449
g439
asg19
S'45'
p450
sg11
g434
sg20
(lp451
I3
asg22
I2
sbasba(i__main__
TrafficElement
p452
(dp453
g11
S'36'
p454
sg12
(lp455
(i__main__
TrafficTarget
p456
(dp457
g16
(lp458
S'30'
p459
aS'34'
p460
asg19
S'41'
p461
sg11
g454
sg20
(lp462
I1
aI6
asg22
I2
sba(i__main__
TrafficTarget
p463
(dp464
g16
(lp465
g459
aS'31'
p466
asg19
S'43'
p467
sg11
g454
sg20
(lp468
I1
aI2
asg22
I2
sba(i__main__
TrafficTarget
p469
(dp470
g16
(lp471
g466
asg19
S'46'
p472
sg11
g454
sg20
(lp473
I5
asg22
I3
sba(i__main__
TrafficTarget
p474
(dp475
g16
(lp476
g466
asg19
S'47'
p477
sg11
g454
sg20
(lp478
I1
asg22
I1
sbasba(i__main__
TrafficElement
p479
(dp480
g11
S'37'
p481
sg12
(lp482
(i__main__
TrafficTarget
p483
(dp484
g16
(lp485
S'30'
p486
asg19
S'40'
p487
sg11
g481
sg20
(lp488
I2
asg22
I3
sbasba(i__main__
TrafficElement
p489
(dp490
g11
S'38'
p491
sg12
(lp492
(i__main__
TrafficTarget
p493
(dp494
g16
(lp495
S'30'
p496
asg19
S'43'
p497
sg11
g491
sg20
(lp498
I2
asg22
I1
sba(i__main__
TrafficTarget
p499
(dp500
g16
(lp501
g496
asg19
S'44'
p502
sg11
g491
sg20
(lp503
I4
asg22
I2
sbasba(i__main__
TrafficElement
p504
(dp505
g11
S'39'
p506
sg12
(lp507
(i__main__
TrafficTarget
p508
(dp509
g16
(lp510
S'30'
p511
asg19
S'43'
p512
sg11
g506
sg20
(lp513
I4
asg22
I4
sbasba(i__main__
TrafficElement
p514
(dp515
g11
S'40'
p516
sg12
(lp517
(i__main__
TrafficTarget
p518
(dp519
g16
(lp520
S'37'
p521
asg19
S'49'
p522
sg11
g516
sg20
(lp523
I1
asg22
I1
sba(i__main__
TrafficTarget
p524
(dp525
g16
(lp526
S'35'
p527
ag521
asg19
S'51'
p528
sg11
g516
sg20
(lp529
I5
aI1
asg22
I4
sba(i__main__
TrafficTarget
p530
(dp531
g16
(lp532
g527
asg19
S'52'
p533
sg11
g516
sg20
(lp534
I3
asg22
I2
sbasba(i__main__
TrafficElement
p535
(dp536
g11
S'41'
p537
sg12
(lp538
(i__main__
TrafficTarget
p539
(dp540
g16
(lp541
S'36'
p542
asg19
S'49'
p543
sg11
g537
sg20
(lp544
I1
asg22
I1
sbasba(i__main__
TrafficElement
p545
(dp546
g11
S'42'
p547
sg12
(lp548
(i__main__
TrafficTarget
p549
(dp550
g16
(lp551
S'35'
p552
asg19
S'49'
p553
sg11
g547
sg20
(lp554
I2
asg22
I3
sbasba(i__main__
TrafficElement
p555
(dp556
g11
S'43'
p557
sg12
(lp558
(i__main__
TrafficTarget
p559
(dp560
g16
(lp561
S'38'
p562
aS'33'
p563
aS'36'
p564
aS'39'
p565
asg19
S'49'
p566
sg11
g557
sg20
(lp567
I2
aI2
aI1
aI1
asg22
I1
sbasba(i__main__
TrafficElement
p568
(dp569
g11
S'44'
p570
sg12
(lp571
(i__main__
TrafficTarget
p572
(dp573
g16
(lp574
S'38'
p575
asg19
S'53'
p576
sg11
g570
sg20
(lp577
I4
asg22
I1
sbasba(i__main__
TrafficElement
p578
(dp579
g11
S'45'
p580
sg12
(lp581
(i__main__
TrafficTarget
p582
(dp583
g16
(lp584
S'35'
p585
asg19
S'48'
p586
sg11
g580
sg20
(lp587
I3
asg22
I2
sbasba(i__main__
TrafficElement
p588
(dp589
g11
S'46'
p590
sg12
(lp591
(i__main__
TrafficTarget
p592
(dp593
g16
(lp594
S'36'
p595
asg19
S'50'
p596
sg11
g590
sg20
(lp597
I4
asg22
I2
sbasba(i__main__
TrafficElement
p598
(dp599
g11
S'47'
p600
sg12
(lp601
(i__main__
TrafficTarget
p602
(dp603
g16
(lp604
S'36'
p605
asg19
S'54'
p606
sg11
g600
sg20
(lp607
I2
asg22
I3
sba(i__main__
TrafficTarget
p608
(dp609
g16
(lp610
g605
asg19
S'57'
p611
sg11
g600
sg20
(lp612
I2
asg22
I2
sbasba(i__main__
TrafficElement
p613
(dp614
g11
S'48'
p615
sg12
(lp616
(i__main__
TrafficTarget
p617
(dp618
g16
(lp619
S'45'
p620
asg19
S'54'
p621
sg11
g615
sg20
(lp622
I1
asg22
I3
sbasba(i__main__
TrafficElement
p623
(dp624
g11
S'49'
p625
sg12
(lp626
(i__main__
TrafficTarget
p627
(dp628
g16
(lp629
S'40'
p630
aS'41'
p631
aS'42'
p632
aS'43'
p633
asg19
S'54'
p634
sg11
g625
sg20
(lp635
I2
aI1
aI2
aI4
asg22
I2
sbasba(i__main__
TrafficElement
p636
(dp637
g11
S'50'
p638
sg12
(lp639
(i__main__
TrafficTarget
p640
(dp641
g16
(lp642
S'46'
p643
asg19
S'54'
p644
sg11
g638
sg20
(lp645
I4
asg22
I2
sbasba(i__main__
TrafficElement
p646
(dp647
g11
S'51'
p648
sg12
(lp649
(i__main__
TrafficTarget
p650
(dp651
g16
(lp652
S'40'
p653
asg19
S'54'
p654
sg11
g648
sg20
(lp655
I3
asg22
I1
sbasba(i__main__
TrafficElement
p656
(dp657
g11
S'52'
p658
sg12
(lp659
(i__main__
TrafficTarget
p660
(dp661
g16
(lp662
S'40'
p663
asg19
S'55'
p664
sg11
g658
sg20
(lp665
I4
asg22
I3
sbasba(i__main__
TrafficElement
p666
(dp667
g11
S'53'
p668
sg12
(lp669
(i__main__
TrafficTarget
p670
(dp671
g16
(lp672
S'44'
p673
asg19
S'56'
p674
sg11
g668
sg20
(lp675
I3
asg22
I4
sbasba(i__main__
TrafficElement
p676
(dp677
g11
S'54'
p678
sg12
(lp679
(i__main__
TrafficTarget
p680
(dp681
g16
(lp682
S'48'
p683
aS'50'
p684
aS'47'
p685
aS'51'
p686
asg19
S'60'
p687
sg11
g678
sg20
(lp688
I3
aI7
aI3
aI5
asg22
I1
sba(i__main__
TrafficTarget
p689
(dp690
g16
(lp691
S'49'
p692
asg19
S'63'
p693
sg11
g678
sg20
(lp694
I3
asg22
I4
sbasba(i__main__
TrafficElement
p695
(dp696
g11
S'55'
p697
sg12
(lp698
(i__main__
TrafficTarget
p699
(dp700
g16
(lp701
S'52'
p702
asg19
S'64'
p703
sg11
g697
sg20
(lp704
I2
asg22
I2
sbasba(i__main__
TrafficElement
p705
(dp706
g11
S'56'
p707
sg12
(lp708
(i__main__
TrafficTarget
p709
(dp710
g16
(lp711
S'53'
p712
asg19
S'58'
p713
sg11
g707
sg20
(lp714
I5
asg22
I2
sba(i__main__
TrafficTarget
p715
(dp716
g16
(lp717
g712
asg19
S'65'
p718
sg11
g707
sg20
(lp719
I4
asg22
I2
sba(i__main__
TrafficTarget
p720
(dp721
g16
(lp722
g712
asg19
S'66'
p723
sg11
g707
sg20
(lp724
I3
asg22
I2
sbasba(i__main__
TrafficElement
p725
(dp726
g11
S'57'
p727
sg12
(lp728
(i__main__
TrafficTarget
p729
(dp730
g16
(lp731
S'47'
p732
asg19
S'59'
p733
sg11
g727
sg20
(lp734
I1
asg22
I1
sba(i__main__
TrafficTarget
p735
(dp736
g16
(lp737
g732
asg19
S'61'
p738
sg11
g727
sg20
(lp739
I1
asg22
I1
sba(i__main__
TrafficTarget
p740
(dp741
g16
(lp742
g732
asg19
S'62'
p743
sg11
g727
sg20
(lp744
I3
asg22
I3
sbasba(i__main__
TrafficElement
p745
(dp746
g11
S'58'
p747
sg12
(lp748
(i__main__
TrafficTarget
p749
(dp750
g16
(lp751
S'56'
p752
asg19
S'68'
p753
sg11
g747
sg20
(lp754
I2
asg22
I4
sbasba(i__main__
TrafficElement
p755
(dp756
g11
S'59'
p757
sg12
(lp758
(i__main__
TrafficTarget
p759
(dp760
g16
(lp761
S'57'
p762
asg19
S'68'
p763
sg11
g757
sg20
(lp764
I4
asg22
I3
sbasba(i__main__
TrafficElement
p765
(dp766
g11
S'60'
p767
sg12
(lp768
(i__main__
TrafficTarget
p769
(dp770
g16
(lp771
S'54'
p772
asg19
S'68'
p773
sg11
g767
sg20
(lp774
I4
asg22
I4
sbasba(i__main__
TrafficElement
p775
(dp776
g11
S'61'
p777
sg12
(lp778
(i__main__
TrafficTarget
p779
(dp780
g16
(lp781
S'57'
p782
asg19
S'68'
p783
sg11
g777
sg20
(lp784
I2
asg22
I4
sbasba(i__main__
TrafficElement
p785
(dp786
g11
S'62'
p787
sg12
(lp788
(i__main__
TrafficTarget
p789
(dp790
g16
(lp791
S'57'
p792
asg19
S'67'
p793
sg11
g787
sg20
(lp794
I3
asg22
I4
sbasba(i__main__
TrafficElement
p795
(dp796
g11
S'63'
p797
sg12
(lp798
(i__main__
TrafficTarget
p799
(dp800
g16
(lp801
S'54'
p802
asg19
S'68'
p803
sg11
g797
sg20
(lp804
I1
asg22
I4
sbasba(i__main__
TrafficElement
p805
(dp806
g11
S'64'
p807
sg12
(lp808
(i__main__
TrafficTarget
p809
(dp810
g16
(lp811
S'55'
p812
asg19
S'69'
p813
sg11
g807
sg20
(lp814
I3
asg22
I4
sba(i__main__
TrafficTarget
p815
(dp816
g16
(lp817
g812
asg19
S'70'
p818
sg11
g807
sg20
(lp819
I2
asg22
I1
sbasba(i__main__
TrafficElement
p820
(dp821
g11
S'65'
p822
sg12
(lp823
(i__main__
TrafficTarget
p824
(dp825
g16
(lp826
S'56'
p827
asg19
S'70'
p828
sg11
g822
sg20
(lp829
I3
asg22
I3
sbasba(i__main__
TrafficElement
p830
(dp831
g11
S'66'
p832
sg12
(lp833
(i__main__
TrafficTarget
p834
(dp835
g16
(lp836
S'56'
p837
asg19
S'68'
p838
sg11
g832
sg20
(lp839
I3
asg22
I5
sbasba(i__main__
TrafficElement
p840
(dp841
g11
S'67'
p842
sg12
(lp843
(i__main__
TrafficTarget
p844
(dp845
g16
(lp846
S'62'
p847
asg19
S'71'
p848
sg11
g842
sg20
(lp849
I1
asg22
I3
sba(i__main__
TrafficTarget
p850
(dp851
g16
(lp852
g847
asg19
S'73'
p853
sg11
g842
sg20
(lp854
I2
asg22
I3
sbasba(i__main__
TrafficElement
p855
(dp856
g11
S'68'
p857
sg12
(lp858
(i__main__
TrafficTarget
p859
(dp860
g16
(lp861
S'58'
p862
aS'60'
p863
aS'59'
p864
aS'61'
p865
aS'63'
p866
aS'66'
p867
asg19
S'71'
p868
sg11
g857
sg20
(lp869
I5
aI1
aI3
aI1
aI2
aI3
asg22
I1
sbasba(i__main__
TrafficElement
p870
(dp871
g11
S'69'
p872
sg12
(lp873
(i__main__
TrafficTarget
p874
(dp875
g16
(lp876
S'64'
p877
asg19
S'71'
p878
sg11
g872
sg20
(lp879
I3
asg22
I1
sbasba(i__main__
TrafficElement
p880
(dp881
g11
S'70'
p882
sg12
(lp883
(i__main__
TrafficTarget
p884
(dp885
g16
(lp886
S'64'
p887
aS'65'
p888
asg19
S'72'
p889
sg11
g882
sg20
(lp890
I3
aI2
asg22
I2
sbasba(i__main__
TrafficElement
p891
(dp892
g11
S'71'
p893
sg12
(lp894
(i__main__
TrafficTarget
p895
(dp896
g16
(lp897
S'68'
p898
aS'67'
p899
asg19
S'75'
p900
sg11
g893
sg20
(lp901
I4
aI2
asg22
I1
sba(i__main__
TrafficTarget
p902
(dp903
g16
(lp904
S'69'
p905
asg19
S'76'
p906
sg11
g893
sg20
(lp907
I1
asg22
I1
sba(i__main__
TrafficTarget
p908
(dp909
g16
(lp910
g905
asg19
S'77'
p911
sg11
g893
sg20
(lp912
I2
asg22
I3
sbasba(i__main__
TrafficElement
p913
(dp914
g11
S'72'
p915
sg12
(lp916
(i__main__
TrafficTarget
p917
(dp918
g16
(lp919
S'70'
p920
asg19
S'83'
p921
sg11
g915
sg20
(lp922
I5
asg22
I1
sbasba(i__main__
TrafficElement
p923
(dp924
g11
S'73'
p925
sg12
(lp926
(i__main__
TrafficTarget
p927
(dp928
g16
(lp929
S'67'
p930
asg19
S'74'
p931
sg11
g925
sg20
(lp932
I2
asg22
I2
sbasba(i__main__
TrafficElement
p933
(dp934
g11
S'74'
p935
sg12
(lp936
(i__main__
TrafficTarget
p937
(dp938
g16
(lp939
S'73'
p940
asg19
S'78'
p941
sg11
g935
sg20
(lp942
I2
asg22
I3
sba(i__main__
TrafficTarget
p943
(dp944
g16
(lp945
g940
asg19
S'79'
p946
sg11
g935
sg20
(lp947
I3
asg22
I3
sba(i__main__
TrafficTarget
p948
(dp949
g16
(lp950
g940
asg19
S'80'
p951
sg11
g935
sg20
(lp952
I3
asg22
I3
sba(i__main__
TrafficTarget
p953
(dp954
g16
(lp955
g940
asg19
S'81'
p956
sg11
g935
sg20
(lp957
I3
asg22
I5
sba(i__main__
TrafficTarget
p958
(dp959
g16
(lp960
g940
asg19
S'82'
p961
sg11
g935
sg20
(lp962
I3
asg22
I1
sba(i__main__
TrafficTarget
p963
(dp964
g16
(lp965
g940
asg19
S'84'
p966
sg11
g935
sg20
(lp967
I5
asg22
I3
sba(i__main__
TrafficTarget
p968
(dp969
g16
(lp970
g940
asg19
S'85'
p971
sg11
g935
sg20
(lp972
I3
asg22
I1
sba(i__main__
TrafficTarget
p973
(dp974
g16
(lp975
g940
asg19
S'86'
p976
sg11
g935
sg20
(lp977
I1
asg22
I1
sbasba(i__main__
TrafficElement
p978
(dp979
g11
S'75'
p980
sg12
(lp981
(i__main__
TrafficTarget
p982
(dp983
g16
(lp984
S'71'
p985
asg19
S'78'
p986
sg11
g980
sg20
(lp987
I2
asg22
I2
sbasba(i__main__
TrafficElement
p988
(dp989
g11
S'76'
p990
sg12
(lp991
(i__main__
TrafficTarget
p992
(dp993
g16
(lp994
S'71'
p995
asg19
S'83'
p996
sg11
g990
sg20
(lp997
I2
asg22
I2
sba(i__main__
TrafficTarget
p998
(dp999
g16
(lp1000
g995
asg19
S'87'
p1001
sg11
g990
sg20
(lp1002
I7
asg22
I2
sbasba(i__main__
TrafficElement
p1003
(dp1004
g11
S'77'
p1005
sg12
(lp1006
(i__main__
TrafficTarget
p1007
(dp1008
g16
(lp1009
S'71'
p1010
asg19
S'78'
p1011
sg11
g1005
sg20
(lp1012
I4
asg22
I3
sbasba(i__main__
TrafficElement
p1013
(dp1014
g11
S'78'
p1015
sg12
(lp1016
(i__main__
TrafficTarget
p1017
(dp1018
g16
(lp1019
S'74'
p1020
aS'75'
p1021
aS'77'
p1022
asg19
S'92'
p1023
sg11
g1015
sg20
(lp1024
I3
aI1
aI1
asg22
I2
sbasba(i__main__
TrafficElement
p1025
(dp1026
g11
S'79'
p1027
sg12
(lp1028
(i__main__
TrafficTarget
p1029
(dp1030
g16
(lp1031
S'74'
p1032
asg19
S'90'
p1033
sg11
g1027
sg20
(lp1034
I2
asg22
I2
sbasba(i__main__
TrafficElement
p1035
(dp1036
g11
S'80'
p1037
sg12
(lp1038
(i__main__
TrafficTarget
p1039
(dp1040
g16
(lp1041
S'74'
p1042
asg19
S'90'
p1043
sg11
g1037
sg20
(lp1044
I4
asg22
I2
sbasba(i__main__
TrafficElement
p1045
(dp1046
g11
S'81'
p1047
sg12
(lp1048
(i__main__
TrafficTarget
p1049
(dp1050
g16
(lp1051
S'74'
p1052
asg19
S'92'
p1053
sg11
g1047
sg20
(lp1054
I2
asg22
I1
sba(i__main__
TrafficTarget
p1055
(dp1056
g16
(lp1057
g1052
asg19
S'93'
p1058
sg11
g1047
sg20
(lp1059
I2
asg22
I5
sbasba(i__main__
TrafficElement
p1060
(dp1061
g11
S'82'
p1062
sg12
(lp1063
(i__main__
TrafficTarget
p1064
(dp1065
g16
(lp1066
S'74'
p1067
asg19
S'92'
p1068
sg11
g1062
sg20
(lp1069
I2
asg22
I2
sbasba(i__main__
TrafficElement
p1070
(dp1071
g11
S'83'
p1072
sg12
(lp1073
(i__main__
TrafficTarget
p1074
(dp1075
g16
(lp1076
S'72'
p1077
aS'76'
p1078
asg19
S'90'
p1079
sg11
g1072
sg20
(lp1080
I2
aI2
asg22
I2
sbasba(i__main__
TrafficElement
p1081
(dp1082
g11
S'84'
p1083
sg12
(lp1084
(i__main__
TrafficTarget
p1085
(dp1086
g16
(lp1087
S'74'
p1088
asg19
S'90'
p1089
sg11
g1083
sg20
(lp1090
I1
asg22
I1
sbasba(i__main__
TrafficElement
p1091
(dp1092
g11
S'85'
p1093
sg12
(lp1094
(i__main__
TrafficTarget
p1095
(dp1096
g16
(lp1097
S'74'
p1098
asg19
S'88'
p1099
sg11
g1093
sg20
(lp1100
I1
asg22
I2
sbasba(i__main__
TrafficElement
p1101
(dp1102
g11
S'86'
p1103
sg12
(lp1104
(i__main__
TrafficTarget
p1105
(dp1106
g16
(lp1107
S'74'
p1108
asg19
S'91'
p1109
sg11
g1103
sg20
(lp1110
I3
asg22
I2
sbasba(i__main__
TrafficElement
p1111
(dp1112
g11
S'87'
p1113
sg12
(lp1114
(i__main__
TrafficTarget
p1115
(dp1116
g16
(lp1117
S'76'
p1118
asg19
S'89'
p1119
sg11
g1113
sg20
(lp1120
I1
asg22
I3
sbasba(i__main__
TrafficElement
p1121
(dp1122
g11
S'88'
p1123
sg12
(lp1124
(i__main__
TrafficTarget
p1125
(dp1126
g16
(lp1127
S'85'
p1128
asg19
S'94'
p1129
sg11
g1123
sg20
(lp1130
I2
asg22
I1
sba(i__main__
TrafficTarget
p1131
(dp1132
g16
(lp1133
g1128
asg19
S'95'
p1134
sg11
g1123
sg20
(lp1135
I4
asg22
I2
sba(i__main__
TrafficTarget
p1136
(dp1137
g16
(lp1138
g1128
asg19
S'96'
p1139
sg11
g1123
sg20
(lp1140
I1
asg22
I1
sbasba(i__main__
TrafficElement
p1141
(dp1142
g11
S'89'
p1143
sg12
(lp1144
(i__main__
TrafficTarget
p1145
(dp1146
g16
(lp1147
S'87'
p1148
asg19
S'94'
p1149
sg11
g1143
sg20
(lp1150
I3
asg22
I2
sbasba(i__main__
TrafficElement
p1151
(dp1152
g11
S'90'
p1153
sg12
(lp1154
(i__main__
TrafficTarget
p1155
(dp1156
g16
(lp1157
S'79'
p1158
aS'80'
p1159
aS'83'
p1160
aS'84'
p1161
asg19
S'94'
p1162
sg11
g1153
sg20
(lp1163
I4
aI2
aI1
aI2
asg22
I4
sbasba(i__main__
TrafficElement
p1164
(dp1165
g11
S'91'
p1166
sg12
(lp1167
(i__main__
TrafficTarget
p1168
(dp1169
g16
(lp1170
S'86'
p1171
asg19
S'94'
p1172
sg11
g1166
sg20
(lp1173
I1
asg22
I6
sbasba(i__main__
TrafficElement
p1174
(dp1175
g11
S'92'
p1176
sg12
(lp1177
(i__main__
TrafficTarget
p1178
(dp1179
g16
(lp1180
S'82'
p1181
aS'78'
p1182
aS'81'
p1183
asg19
S'94'
p1184
sg11
g1176
sg20
(lp1185
I2
aI2
aI3
asg22
I5
sbasba(i__main__
TrafficElement
p1186
(dp1187
g11
S'93'
p1188
sg12
(lp1189
(i__main__
TrafficTarget
p1190
(dp1191
g16
(lp1192
S'81'
p1193
asg19
S'94'
p1194
sg11
g1188
sg20
(lp1195
I4
asg22
I3
sbasba(i__main__
TrafficElement
p1196
(dp1197
g11
S'94'
p1198
sg12
(lp1199
(i__main__
TrafficTarget
p1200
(dp1201
g16
(lp1202
S'88'
p1203
aS'91'
p1204
aS'93'
p1205
asg19
S'97'
p1206
sg11
g1198
sg20
(lp1207
I2
aI5
aI1
asg22
I3
sba(i__main__
TrafficTarget
p1208
(dp1209
g16
(lp1210
S'90'
p1211
aS'92'
p1212
aS'89'
p1213
asg19
S'98'
p1214
sg11
g1198
sg20
(lp1215
I1
aI1
aI5
asg22
I4
sbasba(i__main__
TrafficElement
p1216
(dp1217
g11
S'95'
p1218
sg12
(lp1219
(i__main__
TrafficTarget
p1220
(dp1221
g16
(lp1222
S'88'
p1223
asg19
S'97'
p1224
sg11
g1218
sg20
(lp1225
I1
asg22
I1
sbasba(i__main__
TrafficElement
p1226
(dp1227
g11
S'96'
p1228
sg12
(lp1229
(i__main__
TrafficTarget
p1230
(dp1231
g16
(lp1232
S'88'
p1233
asg19
S'97'
p1234
sg11
g1228
sg20
(lp1235
I3
asg22
I3
sbasba(i__main__
TrafficElement
p1236
(dp1237
g11
S'97'
p1238
sg12
(lp1239
(i__main__
TrafficTarget
p1240
(dp1241
g16
(lp1242
S'94'
p1243
aS'95'
p1244
aS'96'
p1245
asg19
S'100'
p1246
sg11
g1238
sg20
(lp1247
I1
aI3
aI1
asg22
I2
sba(i__main__
TrafficTarget
p1248
(dp1249
g16
(lp1250
g1244
asg19
S'101'
p1251
sg11
g1238
sg20
(lp1252
I2
asg22
I2
sba(i__main__
TrafficTarget
p1253
(dp1254
g16
(lp1255
g1243
ag1244
asg19
S'102'
p1256
sg11
g1238
sg20
(lp1257
I1
aI2
asg22
I2
sbasba(i__main__
TrafficElement
p1258
(dp1259
g11
S'98'
p1260
sg12
(lp1261
(i__main__
TrafficTarget
p1262
(dp1263
g16
(lp1264
S'94'
p1265
asg19
S'99'
p1266
sg11
g1260
sg20
(lp1267
I3
asg22
I1
sbasba(i__main__
TrafficElement
p1268
(dp1269
g11
S'99'
p1270
sg12
(lp1271
(i__main__
TrafficTarget
p1272
(dp1273
g16
(lp1274
S'98'
p1275
asg19
S'103'
p1276
sg11
g1270
sg20
(lp1277
I3
asg22
I2
sbasba(i__main__
TrafficElement
p1278
(dp1279
g11
S'100'
p1280
sg12
(lp1281
(i__main__
TrafficTarget
p1282
(dp1283
g16
(lp1284
S'97'
p1285
asg19
S'103'
p1286
sg11
g1280
sg20
(lp1287
I1
asg22
I3
sbasba(i__main__
TrafficElement
p1288
(dp1289
g11
S'101'
p1290
sg12
(lp1291
(i__main__
TrafficTarget
p1292
(dp1293
g16
(lp1294
S'97'
p1295
asg19
S'103'
p1296
sg11
g1290
sg20
(lp1297
I2
asg22
I1
sbasba(i__main__
TrafficElement
p1298
(dp1299
g11
S'102'
p1300
sg12
(lp1301
(i__main__
TrafficTarget
p1302
(dp1303
g16
(lp1304
S'97'
p1305
asg19
S'103'
p1306
sg11
g1300
sg20
(lp1307
I2
asg22
I1
sbasba(i__main__
TrafficElement
p1308
(dp1309
g11
S'103'
p1310
sg12
(lp1311
(i__main__
TrafficTarget
p1312
(dp1313
g16
(lp1314
S'102'
p1315
asg19
S'104'
p1316
sg11
g1310
sg20
(lp1317
I2
asg22
I2
sba(i__main__
TrafficTarget
p1318
(dp1319
g16
(lp1320
S'100'
p1321
ag1315
asg19
S'105'
p1322
sg11
g1310
sg20
(lp1323
I2
aI6
asg22
I2
sba(i__main__
TrafficTarget
p1324
(dp1325
g16
(lp1326
S'99'
p1327
ag1315
aS'101'
p1328
asg19
S'106'
p1329
sg11
g1310
sg20
(lp1330
I3
aI3
aI3
asg22
I2
sba(i__main__
TrafficTarget
p1331
(dp1332
g16
(lp1333
g1315
asg19
S'107'
p1334
sg11
g1310
sg20
(lp1335
I3
asg22
I6
sbasba(i__main__
TrafficElement
p1336
(dp1337
g11
S'104'
p1338
sg12
(lp1339
(i__main__
TrafficTarget
p1340
(dp1341
g16
(lp1342
S'103'
p1343
asg19
S'109'
p1344
sg11
g1338
sg20
(lp1345
I1
asg22
I2
sbasba(i__main__
TrafficElement
p1346
(dp1347
g11
S'105'
p1348
sg12
(lp1349
(i__main__
TrafficTarget
p1350
(dp1351
g16
(lp1352
S'103'
p1353
asg19
S'109'
p1354
sg11
g1348
sg20
(lp1355
I1
asg22
I1
sbasba(i__main__
TrafficElement
p1356
(dp1357
g11
S'106'
p1358
sg12
(lp1359
(i__main__
TrafficTarget
p1360
(dp1361
g16
(lp1362
S'103'
p1363
asg19
S'108'
p1364
sg11
g1358
sg20
(lp1365
I3
asg22
I3
sbasba(i__main__
TrafficElement
p1366
(dp1367
g11
S'107'
p1368
sg12
(lp1369
(i__main__
TrafficTarget
p1370
(dp1371
g16
(lp1372
S'103'
p1373
asg19
S'109'
p1374
sg11
g1368
sg20
(lp1375
I3
asg22
I2
sbasba(i__main__
TrafficElement
p1376
(dp1377
g11
S'108'
p1378
sg12
(lp1379
(i__main__
TrafficTarget
p1380
(dp1381
g16
(lp1382
S'106'
p1383
asg19
S'110'
p1384
sg11
g1378
sg20
(lp1385
I2
asg22
I3
sba(i__main__
TrafficTarget
p1386
(dp1387
g16
(lp1388
g1383
asg19
S'111'
p1389
sg11
g1378
sg20
(lp1390
I2
asg22
I1
sba(i__main__
TrafficTarget
p1391
(dp1392
g16
(lp1393
g1383
asg19
S'112'
p1394
sg11
g1378
sg20
(lp1395
I5
asg22
I2
sbasba(i__main__
TrafficElement
p1396
(dp1397
g11
S'109'
p1398
sg12
(lp1399
(i__main__
TrafficTarget
p1400
(dp1401
g16
(lp1402
S'104'
p1403
aS'105'
p1404
aS'107'
p1405
asg19
S'110'
p1406
sg11
g1398
sg20
(lp1407
I3
aI7
aI1
asg22
I3
sbasba(i__main__
TrafficElement
p1408
(dp1409
g11
S'110'
p1410
sg12
(lp1411
(i__main__
TrafficTarget
p1412
(dp1413
g16
(lp1414
S'108'
p1415
aS'109'
p1416
asg19
S'115'
p1417
sg11
g1410
sg20
(lp1418
I2
aI1
asg22
I4
sbasba(i__main__
TrafficElement
p1419
(dp1420
g11
S'111'
p1421
sg12
(lp1422
(i__main__
TrafficTarget
p1423
(dp1424
g16
(lp1425
S'108'
p1426
asg19
S'113'
p1427
sg11
g1421
sg20
(lp1428
I2
asg22
I3
sba(i__main__
TrafficTarget
p1429
(dp1430
g16
(lp1431
g1426
asg19
S'114'
p1432
sg11
g1421
sg20
(lp1433
I3
asg22
I1
sbasba(i__main__
TrafficElement
p1434
(dp1435
g11
S'112'
p1436
sg12
(lp1437
(i__main__
TrafficTarget
p1438
(dp1439
g16
(lp1440
S'108'
p1441
asg19
S'118'
p1442
sg11
g1436
sg20
(lp1443
I4
asg22
I1
sbasba(i__main__
TrafficElement
p1444
(dp1445
g11
S'113'
p1446
sg12
(lp1447
(i__main__
TrafficTarget
p1448
(dp1449
g16
(lp1450
S'111'
p1451
asg19
S'117'
p1452
sg11
g1446
sg20
(lp1453
I2
asg22
I4
sbasba(i__main__
TrafficElement
p1454
(dp1455
g11
S'114'
p1456
sg12
(lp1457
(i__main__
TrafficTarget
p1458
(dp1459
g16
(lp1460
S'111'
p1461
asg19
S'116'
p1462
sg11
g1456
sg20
(lp1463
I1
asg22
I1
sbasba(i__main__
TrafficElement
p1464
(dp1465
g11
S'115'
p1466
sg12
(lp1467
(i__main__
TrafficTarget
p1468
(dp1469
g16
(lp1470
S'110'
p1471
asg19
S'116'
p1472
sg11
g1466
sg20
(lp1473
I1
asg22
I5
sbasba(i__main__
TrafficElement
p1474
(dp1475
g11
S'116'
p1476
sg12
(lp1477
(i__main__
TrafficTarget
p1478
(dp1479
g16
(lp1480
S'114'
p1481
aS'115'
p1482
asg19
S'119'
p1483
sg11
g1476
sg20
(lp1484
I2
aI6
asg22
I2
sbasba(i__main__
TrafficElement
p1485
(dp1486
g11
S'117'
p1487
sg12
(lp1488
(i__main__
TrafficTarget
p1489
(dp1490
g16
(lp1491
S'113'
p1492
asg19
S'119'
p1493
sg11
g1487
sg20
(lp1494
I3
asg22
I2
sbasba(i__main__
TrafficElement
p1495
(dp1496
g11
S'118'
p1497
sg12
(lp1498
(i__main__
TrafficTarget
p1499
(dp1500
g16
(lp1501
S'112'
p1502
asg19
S'119'
p1503
sg11
g1497
sg20
(lp1504
I2
asg22
I4
sbasba(i__main__
TrafficElement
p1505
(dp1506
g11
S'119'
p1507
sg12
(lp1508
(i__main__
TrafficTarget
p1509
(dp1510
g16
(lp1511
S'117'
p1512
aS'116'
p1513
aS'118'
p1514
asg19
S'SINK'
p1515
sg11
g1507
sg20
(lp1516
I2
aI5
aI1
asg22
I2
sbasbasb.