(i__main__
TrafficList
p1
(dp2
S'maxDegree'
p3
I8
sS'graphID'
p4
I55
sS'networkBandwidths'
p5
(lp6
sS'trafficElements'
p7
(lp8
(i__main__
TrafficElement
p9
(dp10
S'nodeId'
p11
S'0'
sS'targetsList'
p12
(lp13
(i__main__
TrafficTarget
p14
(dp15
S'dataSourcesList'
p16
(lp17
S'SOURCE'
p18
asS'targetId'
p19
S'1'
sg11
S'0'
sS'triggerPacketsList'
p20
(lp21
I1
asS'outputPackets'
p22
I1
sbasba(i__main__
TrafficElement
p23
(dp24
g11
S'1'
sg12
(lp25
(i__main__
TrafficTarget
p26
(dp27
g16
(lp28
S'0'
asg19
S'2'
sg11
S'1'
sg20
(lp29
I2
asg22
I4
sbasba(i__main__
TrafficElement
p30
(dp31
g11
S'2'
sg12
(lp32
(i__main__
TrafficTarget
p33
(dp34
g16
(lp35
S'1'
asg19
S'3'
sg11
S'2'
sg20
(lp36
I2
asg22
I2
sba(i__main__
TrafficTarget
p37
(dp38
g16
(lp39
S'1'
asg19
S'4'
sg11
S'2'
sg20
(lp40
I1
asg22
I2
sbasba(i__main__
TrafficElement
p41
(dp42
g11
S'3'
sg12
(lp43
(i__main__
TrafficTarget
p44
(dp45
g16
(lp46
S'2'
asg19
S'5'
sg11
S'3'
sg20
(lp47
I4
asg22
I3
sbasba(i__main__
TrafficElement
p48
(dp49
g11
S'4'
sg12
(lp50
(i__main__
TrafficTarget
p51
(dp52
g16
(lp53
S'2'
asg19
S'5'
sg11
S'4'
sg20
(lp54
I1
asg22
I1
sbasba(i__main__
TrafficElement
p55
(dp56
g11
S'5'
sg12
(lp57
(i__main__
TrafficTarget
p58
(dp59
g16
(lp60
S'4'
asg19
S'6'
sg11
S'5'
sg20
(lp61
I2
asg22
I2
sba(i__main__
TrafficTarget
p62
(dp63
g16
(lp64
S'4'
asg19
S'7'
sg11
S'5'
sg20
(lp65
I3
asg22
I5
sba(i__main__
TrafficTarget
p66
(dp67
g16
(lp68
S'3'
asg19
S'8'
sg11
S'5'
sg20
(lp69
I1
asg22
I3
sbasba(i__main__
TrafficElement
p70
(dp71
g11
S'6'
sg12
(lp72
(i__main__
TrafficTarget
p73
(dp74
g16
(lp75
S'5'
asg19
S'SINK'
p76
sg11
S'6'
sg20
(lp77
I1
asg22
I2
sbasba(i__main__
TrafficElement
p78
(dp79
g11
S'7'
sg12
(lp80
(i__main__
TrafficTarget
p81
(dp82
g16
(lp83
S'5'
asg19
g76
sg11
S'7'
sg20
(lp84
I3
asg22
I1
sbasba(i__main__
TrafficElement
p85
(dp86
g11
S'8'
sg12
(lp87
(i__main__
TrafficTarget
p88
(dp89
g16
(lp90
S'5'
asg19
g76
sg11
S'8'
sg20
(lp91
I2
asg22
I4
sbasbasb.