(i__main__
TrafficList
p1
(dp2
S'maxDegree'
p3
I8
sS'graphID'
p4
I66
sS'networkBandwidths'
p5
(lp6
sS'trafficElements'
p7
(lp8
(i__main__
TrafficElement
p9
(dp10
S'nodeId'
p11
S'0'
sS'targetsList'
p12
(lp13
(i__main__
TrafficTarget
p14
(dp15
S'dataSourcesList'
p16
(lp17
S'SOURCE'
p18
asS'targetId'
p19
S'1'
sg11
S'0'
sS'triggerPacketsList'
p20
(lp21
I3
asS'outputPackets'
p22
I2
sbasba(i__main__
TrafficElement
p23
(dp24
g11
S'1'
sg12
(lp25
(i__main__
TrafficTarget
p26
(dp27
g16
(lp28
S'0'
asg19
S'2'
sg11
S'1'
sg20
(lp29
I4
asg22
I1
sbasba(i__main__
TrafficElement
p30
(dp31
g11
S'2'
sg12
(lp32
(i__main__
TrafficTarget
p33
(dp34
g16
(lp35
S'1'
asg19
S'3'
sg11
S'2'
sg20
(lp36
I2
asg22
I4
sbasba(i__main__
TrafficElement
p37
(dp38
g11
S'3'
sg12
(lp39
(i__main__
TrafficTarget
p40
(dp41
g16
(lp42
S'2'
asg19
S'4'
sg11
S'3'
sg20
(lp43
I2
asg22
I1
sbasba(i__main__
TrafficElement
p44
(dp45
g11
S'4'
sg12
(lp46
(i__main__
TrafficTarget
p47
(dp48
g16
(lp49
S'3'
asg19
S'5'
sg11
S'4'
sg20
(lp50
I2
asg22
I1
sbasba(i__main__
TrafficElement
p51
(dp52
g11
S'5'
sg12
(lp53
(i__main__
TrafficTarget
p54
(dp55
g16
(lp56
S'4'
asg19
S'6'
sg11
S'5'
sg20
(lp57
I2
asg22
I3
sbasba(i__main__
TrafficElement
p58
(dp59
g11
S'6'
sg12
(lp60
(i__main__
TrafficTarget
p61
(dp62
g16
(lp63
S'5'
asg19
S'7'
sg11
S'6'
sg20
(lp64
I2
asg22
I2
sbasba(i__main__
TrafficElement
p65
(dp66
g11
S'7'
sg12
(lp67
(i__main__
TrafficTarget
p68
(dp69
g16
(lp70
S'6'
asg19
S'8'
sg11
S'7'
sg20
(lp71
I2
asg22
I3
sbasba(i__main__
TrafficElement
p72
(dp73
g11
S'8'
sg12
(lp74
(i__main__
TrafficTarget
p75
(dp76
g16
(lp77
S'7'
asg19
S'SINK'
p78
sg11
S'8'
sg20
(lp79
I3
asg22
I1
sbasbasb.